target datalayout = "e-m:e-p270:32:32-p271:32:32-p272:64:64-i64:64-i128:128-f80:128-n8:16:32:64-S128"
target triple = "x86_64-pc-linux-gnu"

%struct.Context = type { i32, i32, i32, i32, i32, i32, i32, i32, i32, i32, i32, i32, ptr, ptr, ptr, [80 x i8], i64, i64, i32, [24 x i32], i64, i64, i32, ptr, ptr, i64, ptr, ptr, ptr, i32, i32, i32, ptr, ptr, ptr, ptr, ptr, i64, ptr, ptr, i64, ptr, i64, ptr, i64, i64, i64, i64 }

@stderr = external global ptr, align 8
@.str.58 = private unnamed_addr constant [4 x i8] c"con\00", align 1
@.str.73 = private unnamed_addr constant [7 x i8] c"[%s]: \00", align 1
@.str.74 = private unnamed_addr constant [5 x i8] c" -> \00", align 1
@.str.75 = private unnamed_addr constant [14 x i8] c" in %1.2f sec\00", align 1

; Function Attrs: nounwind uwtable
define internal ptr @PrintablePath(ptr noundef %0) #0 {
  %2 = alloca ptr, align 8
  store ptr %0, ptr %2, align 8, !tbaa !56
  %3 = load ptr, ptr %2, align 8, !tbaa !56
  %4 = icmp ne ptr %3, null
  br i1 %4, label %5, label %7

5:                                                ; preds = %1
  %6 = load ptr, ptr %2, align 8, !tbaa !56
  br label %8

7:                                                ; preds = %1
  br label %8

8:                                                ; preds = %7, %5
  %9 = phi ptr [ %6, %5 ], [ @.str.58, %7 ]
  ret ptr %9
}

; Function Attrs: nounwind uwtable
define internal void @PrintFileProcessingProgress(ptr noundef %0) #0 {
  %2 = alloca ptr, align 8
  store ptr %0, ptr %2, align 8, !tbaa !57
  %3 = load ptr, ptr @stderr, align 8, !tbaa !53
  %4 = load ptr, ptr %2, align 8, !tbaa !57
  %5 = getelementptr inbounds nuw %struct.Context, ptr %4, i32 0, i32 35
  %6 = load ptr, ptr %5, align 8, !tbaa !48
  %7 = call ptr @PrintablePath(ptr noundef %6)
  %8 = call i32 (ptr, ptr, ...) @fprintf(ptr noundef %3, ptr noundef @.str.73, ptr noundef %7) #8
  %9 = load ptr, ptr %2, align 8, !tbaa !57
  %10 = getelementptr inbounds nuw %struct.Context, ptr %9, i32 0, i32 44
  %11 = load i64, ptr %10, align 8, !tbaa !66
  call void @PrintBytes(i64 noundef %11)
  %12 = load ptr, ptr @stderr, align 8, !tbaa !53
  %13 = call i32 (ptr, ptr, ...) @fprintf(ptr noundef %12, ptr noundef @.str.74) #8
  %14 = load ptr, ptr %2, align 8, !tbaa !57
  %15 = getelementptr inbounds nuw %struct.Context, ptr %14, i32 0, i32 45
  %16 = load i64, ptr %15, align 8, !tbaa !65
  call void @PrintBytes(i64 noundef %16)
  %17 = load ptr, ptr @stderr, align 8, !tbaa !53
  %18 = load ptr, ptr %2, align 8, !tbaa !57
  %19 = getelementptr inbounds nuw %struct.Context, ptr %18, i32 0, i32 47
  %20 = load i64, ptr %19, align 8, !tbaa !78
  %21 = load ptr, ptr %2, align 8, !tbaa !57
  %22 = getelementptr inbounds nuw %struct.Context, ptr %21, i32 0, i32 46
  %23 = load i64, ptr %22, align 8, !tbaa !83
  %24 = sub nsw i64 %20, %23
  %25 = sitofp i64 %24 to double
  %26 = fdiv double %25, 1.000000e+06
  %27 = call i32 (ptr, ptr, ...) @fprintf(ptr noundef %17, ptr noundef @.str.75, double noundef %26) #8
  ret void
}