; Function Attrs: cold nofree nounwind uwtable
define internal fastcc void @PrintFileProcessingProgress(ptr noundef nonnull readonly captures(none) %0) unnamed_addr #15 {
  %2 = load ptr, ptr @stderr, align 8, !tbaa !30
  %3 = getelementptr inbounds nuw i8, ptr %0, i64 384
  %4 = load ptr, ptr %3, align 8, !tbaa !61
  %.not.i = icmp eq ptr %4, null
  %5 = select i1 %.not.i, ptr @.str.58, ptr %4
  %6 = tail call i32 (ptr, ptr, ...) @fprintf(ptr noundef %2, ptr noundef nonnull @.str.73, ptr noundef nonnull %5) #24
  %7 = getelementptr inbounds nuw i8, ptr %0, i64 456
  %8 = load i64, ptr %7, align 8, !tbaa !59
  tail call fastcc void @PrintBytes(i64 noundef %8)
  %9 = load ptr, ptr @stderr, align 8, !tbaa !30
  %10 = tail call i64 @fwrite(ptr nonnull @.str.74, i64 4, i64 1, ptr %9) #23
  %11 = getelementptr inbounds nuw i8, ptr %0, i64 464
  %12 = load i64, ptr %11, align 8, !tbaa !62
  tail call fastcc void @PrintBytes(i64 noundef %12)
  %13 = load ptr, ptr @stderr, align 8, !tbaa !30
  %14 = getelementptr inbounds nuw i8, ptr %0, i64 480
  %15 = load i64, ptr %14, align 8, !tbaa !64
  %16 = getelementptr inbounds nuw i8, ptr %0, i64 472
  %17 = load i64, ptr %16, align 8, !tbaa !56
  %18 = sub nsw i64 %15, %17
  %19 = sitofp i64 %18 to double
  %20 = fdiv double %19, 1.000000e+06
  %21 = tail call i32 (ptr, ptr, ...) @fprintf(ptr noundef %13, ptr noundef nonnull @.str.75, double noundef %20) #24
  ret void
}